target datalayout = "e-m:e-p270:32:32-p271:32:32-p272:64:64-i64:64-i128:128-f80:128-n8:16:32:64-S128"
target triple = "x86_64-pc-linux-gnu"

%struct.H5B2_hdr_t = type { %struct.H5C_cache_entry_t, %struct.H5B2_node_ptr_t, i8, i8, i32, i32, i16, i8, ptr, i64, i64, i64, i64, i8, i8, i8, ptr, ptr, ptr, ptr, ptr, ptr, ptr, i8, ptr, ptr, i64, ptr, ptr }
%struct.H5C_cache_entry_t = type { ptr, i64, i64, ptr, i8, ptr, i8, i8, i8, i8, i32, i8, i8, i8, i8, i8, i32, ptr, i32, i32, i32, i32, i32, i8, i8, ptr, ptr, ptr, ptr, ptr, ptr, i8, i32, i8, i64, ptr, i64, i64, i32, i8, i32, i32, i8, ptr, ptr, ptr }
%struct.H5B2_node_ptr_t = type { i64, i16, i64 }

@H5B2_init_g = global i8 0, align 1
@H5_libterm_g = external global i8, align 1
@.str = private unnamed_addr constant [98 x i8] c"generated/home/dtcxzyw/WorkSpace/Projects/compilers/llvm-opt-benchmark/bench/hdf5/hdf5/src/H5B2.c\00", align 1
@H5E_BTREE_g = external global i64, align 8
@H5E_CANTPROTECT_g = external global i64, align 8
@.str.3 = private unnamed_addr constant [35 x i8] c"unable to protect v2 B-tree header\00", align 1
@H5E_CANTUNPROTECT_g = external global i64, align 8
@.str.6 = private unnamed_addr constant [35 x i8] c"unable to release v2 B-tree header\00", align 1
@H5E_CANTDELETE_g = external global i64, align 8
@.str.35 = private unnamed_addr constant [27 x i8] c"unable to delete v2 B-tree\00", align 1
@__func__.H5B2_delete = private unnamed_addr constant [12 x i8] c"H5B2_delete\00", align 1

; Function Attrs: nounwind uwtable
define i32 @H5B2_delete(ptr noundef %0, i64 noundef %1, ptr noundef %2, ptr noundef %3, ptr noundef %4) #0 {
  %6 = alloca ptr, align 8
  %7 = alloca i64, align 8
  %8 = alloca ptr, align 8
  %9 = alloca ptr, align 8
  %10 = alloca ptr, align 8
  %11 = alloca ptr, align 8
  %12 = alloca i32, align 4
  %13 = alloca i8, align 1
  store ptr %0, ptr %6, align 8, !tbaa !3
  store i64 %1, ptr %7, align 8, !tbaa !19
  store ptr %2, ptr %8, align 8, !tbaa !10
  store ptr %3, ptr %9, align 8, !tbaa !10
  store ptr %4, ptr %10, align 8, !tbaa !10
  call void @llvm.lifetime.start.p0(i64 8, ptr %11) #6
  store ptr null, ptr %11, align 8, !tbaa !13
  call void @llvm.lifetime.start.p0(i64 4, ptr %12) #6
  store i32 0, ptr %12, align 4, !tbaa !24
  call void @llvm.lifetime.start.p0(i64 1, ptr %13) #6
  store i8 0, ptr %13, align 1, !tbaa !15
  %14 = load i8, ptr @H5B2_init_g, align 1, !tbaa !15, !range !17, !noundef !18
  %15 = trunc i8 %14 to i1
  br i1 %15, label %20, label %16

16:                                               ; preds = %5
  %17 = load i8, ptr @H5_libterm_g, align 1, !tbaa !15, !range !17, !noundef !18
  %18 = trunc i8 %17 to i1
  %19 = xor i1 %18, true
  br label %20

20:                                               ; preds = %16, %5
  %21 = phi i1 [ false, %5 ], [ %19, %16 ]
  %22 = xor i1 %21, true
  %23 = xor i1 %22, true
  %24 = zext i1 %23 to i32
  %25 = sext i32 %24 to i64
  %26 = call i64 @llvm.expect.i64(i64 %25, i64 0)
  %27 = icmp ne i64 %26, 0
  br i1 %27, label %28, label %29

28:                                               ; preds = %20
  store i8 1, ptr @H5B2_init_g, align 1, !tbaa !15
  br label %29

29:                                               ; preds = %28, %20
  %30 = load i8, ptr @H5B2_init_g, align 1, !tbaa !15, !range !17, !noundef !18
  %31 = trunc i8 %30 to i1
  br i1 %31, label %36, label %32

32:                                               ; preds = %29
  %33 = load i8, ptr @H5_libterm_g, align 1, !tbaa !15, !range !17, !noundef !18
  %34 = trunc i8 %33 to i1
  %35 = xor i1 %34, true
  br label %36

36:                                               ; preds = %32, %29
  %37 = phi i1 [ true, %29 ], [ %35, %32 ]
  %38 = xor i1 %37, true
  %39 = xor i1 %38, true
  %40 = zext i1 %39 to i32
  %41 = sext i32 %40 to i64
  %42 = call i64 @llvm.expect.i64(i64 %41, i64 1)
  %43 = icmp ne i64 %42, 0
  br i1 %43, label %44, label %135

44:                                               ; preds = %36
  %45 = load ptr, ptr %6, align 8, !tbaa !3
  %46 = load i64, ptr %7, align 8, !tbaa !19
  %47 = load ptr, ptr %8, align 8, !tbaa !10
  %48 = call ptr @H5B2__hdr_protect(ptr noundef %45, i64 noundef %46, ptr noundef %47, i32 noundef 0)
  store ptr %48, ptr %11, align 8, !tbaa !13
  %49 = icmp eq ptr null, %48
  br i1 %49, label %50, label %69

50:                                               ; preds = %44
  br label %51

51:                                               ; preds = %50
  br label %52

52:                                               ; preds = %51
  br label %53

53:                                               ; preds = %52
  %54 = load i64, ptr @H5E_BTREE_g, align 8, !tbaa !19
  %55 = load i64, ptr @H5E_CANTPROTECT_g, align 8, !tbaa !19
  %56 = call i32 (ptr, ptr, i32, i64, i64, ptr, ...) @H5E_printf_stack(ptr noundef @.str, ptr noundef @__func__.H5B2_delete, i32 noundef 1481, i64 noundef %54, i64 noundef %55, ptr noundef @.str.3)
  br label %57

57:                                               ; preds = %53
  br label %58

58:                                               ; preds = %57
  store i8 1, ptr %13, align 1, !tbaa !15
  %59 = load i8, ptr %13, align 1, !tbaa !15, !range !17, !noundef !18
  %60 = trunc i8 %59 to i1
  %61 = zext i1 %60 to i8
  store i8 %61, ptr %13, align 1, !tbaa !15
  br label %62

62:                                               ; preds = %58
  br label %63

63:                                               ; preds = %62
  br label %64

64:                                               ; preds = %63
  store i32 -1, ptr %12, align 4, !tbaa !24
  br label %111

65:                                               ; No predecessors!
  br label %66

66:                                               ; preds = %65
  br label %67

67:                                               ; preds = %66
  br label %68

68:                                               ; preds = %67
  br label %69

69:                                               ; preds = %68, %44
  %70 = load ptr, ptr %9, align 8, !tbaa !10
  %71 = load ptr, ptr %11, align 8, !tbaa !13
  %72 = getelementptr inbounds nuw %struct.H5B2_hdr_t, ptr %71, i32 0, i32 16
  store ptr %70, ptr %72, align 8, !tbaa !83
  %73 = load ptr, ptr %10, align 8, !tbaa !10
  %74 = load ptr, ptr %11, align 8, !tbaa !13
  %75 = getelementptr inbounds nuw %struct.H5B2_hdr_t, ptr %74, i32 0, i32 17
  store ptr %73, ptr %75, align 8, !tbaa !84
  %76 = load ptr, ptr %11, align 8, !tbaa !13
  %77 = getelementptr inbounds nuw %struct.H5B2_hdr_t, ptr %76, i32 0, i32 12
  %78 = load i64, ptr %77, align 8, !tbaa !85
  %79 = icmp ne i64 %78, 0
  br i1 %79, label %80, label %83

80:                                               ; preds = %69
  %81 = load ptr, ptr %11, align 8, !tbaa !13
  %82 = getelementptr inbounds nuw %struct.H5B2_hdr_t, ptr %81, i32 0, i32 13
  store i8 1, ptr %82, align 8, !tbaa !40
  br label %110

83:                                               ; preds = %69
  %84 = load ptr, ptr %6, align 8, !tbaa !3
  %85 = load ptr, ptr %11, align 8, !tbaa !13
  %86 = getelementptr inbounds nuw %struct.H5B2_hdr_t, ptr %85, i32 0, i32 8
  store ptr %84, ptr %86, align 8, !tbaa !26
  %87 = load ptr, ptr %11, align 8, !tbaa !13
  %88 = call i32 @H5B2__hdr_delete(ptr noundef %87)
  %89 = icmp slt i32 %88, 0
  br i1 %89, label %90, label %109

90:                                               ; preds = %83
  br label %91

91:                                               ; preds = %90
  br label %92

92:                                               ; preds = %91
  br label %93

93:                                               ; preds = %92
  %94 = load i64, ptr @H5E_BTREE_g, align 8, !tbaa !19
  %95 = load i64, ptr @H5E_CANTDELETE_g, align 8, !tbaa !19
  %96 = call i32 (ptr, ptr, i32, i64, i64, ptr, ...) @H5E_printf_stack(ptr noundef @.str, ptr noundef @__func__.H5B2_delete, i32 noundef 1496, i64 noundef %94, i64 noundef %95, ptr noundef @.str.35)
  br label %97

97:                                               ; preds = %93
  br label %98

98:                                               ; preds = %97
  store i8 1, ptr %13, align 1, !tbaa !15
  %99 = load i8, ptr %13, align 1, !tbaa !15, !range !17, !noundef !18
  %100 = trunc i8 %99 to i1
  %101 = zext i1 %100 to i8
  store i8 %101, ptr %13, align 1, !tbaa !15
  br label %102

102:                                              ; preds = %98
  br label %103

103:                                              ; preds = %102
  br label %104

104:                                              ; preds = %103
  store i32 -1, ptr %12, align 4, !tbaa !24
  br label %111

105:                                              ; No predecessors!
  br label %106

106:                                              ; preds = %105
  br label %107

107:                                              ; preds = %106
  br label %108

108:                                              ; preds = %107
  br label %109

109:                                              ; preds = %108, %83
  store ptr null, ptr %11, align 8, !tbaa !13
  br label %110

110:                                              ; preds = %109, %80
  br label %111

111:                                              ; preds = %110, %104, %64
  %112 = load ptr, ptr %11, align 8, !tbaa !13
  %113 = icmp ne ptr %112, null
  br i1 %113, label %114, label %134

114:                                              ; preds = %111
  %115 = load ptr, ptr %11, align 8, !tbaa !13
  %116 = call i32 @H5B2__hdr_unprotect(ptr noundef %115, i32 noundef 0)
  %117 = icmp slt i32 %116, 0
  br i1 %117, label %118, label %134

118:                                              ; preds = %114
  br label %119

119:                                              ; preds = %118
  br label %120

120:                                              ; preds = %119
  br label %121

121:                                              ; preds = %120
  %122 = load i64, ptr @H5E_BTREE_g, align 8, !tbaa !19
  %123 = load i64, ptr @H5E_CANTUNPROTECT_g, align 8, !tbaa !19
  %124 = call i32 (ptr, ptr, i32, i64, i64, ptr, ...) @H5E_printf_stack(ptr noundef @.str, ptr noundef @__func__.H5B2_delete, i32 noundef 1503, i64 noundef %122, i64 noundef %123, ptr noundef @.str.6)
  br label %125

125:                                              ; preds = %121
  br label %126

126:                                              ; preds = %125
  store i8 1, ptr %13, align 1, !tbaa !15
  %127 = load i8, ptr %13, align 1, !tbaa !15, !range !17, !noundef !18
  %128 = trunc i8 %127 to i1
  %129 = zext i1 %128 to i8
  store i8 %129, ptr %13, align 1, !tbaa !15
  br label %130

130:                                              ; preds = %126
  br label %131

131:                                              ; preds = %130
  store i32 -1, ptr %12, align 4, !tbaa !24
  br label %132

132:                                              ; preds = %131
  br label %133

133:                                              ; preds = %132
  br label %134

134:                                              ; preds = %133, %114, %111
  br label %135

135:                                              ; preds = %134, %36
  %136 = load i32, ptr %12, align 4, !tbaa !24
  call void @llvm.lifetime.end.p0(i64 1, ptr %13) #6
  call void @llvm.lifetime.end.p0(i64 4, ptr %12) #6
  call void @llvm.lifetime.end.p0(i64 8, ptr %11) #6
  ret i32 %136
}