; Function Attrs: nounwind uwtable
define range(i32 -1, 1) i32 @H5B2_delete(ptr noundef %0, i64 noundef %1, ptr noundef %2, ptr noundef %3, ptr noundef %4) local_unnamed_addr #0 {
  %6 = load i8, ptr @H5B2_init_g, align 1, !tbaa !3, !range !7, !noundef !8
  %7 = trunc nuw i8 %6 to i1
  %8 = load i8, ptr @H5_libterm_g, align 1, !range !7
  %9 = trunc nuw i8 %8 to i1
  %10 = select i1 %7, i1 true, i1 %9
  br i1 %10, label %11, label %.thread, !prof !9

.thread:                                          ; preds = %5
  store i8 1, ptr @H5B2_init_g, align 1, !tbaa !3
  br label %14

11:                                               ; preds = %5
  %12 = xor i1 %9, true
  %13 = select i1 %7, i1 true, i1 %12
  br i1 %13, label %14, label %.thread21, !prof !10

14:                                               ; preds = %.thread, %11
  %15 = tail call ptr @H5B2__hdr_protect(ptr noundef %0, i64 noundef %1, ptr noundef %2, i32 noundef 0) #7
  %16 = icmp eq ptr %15, null
  br i1 %16, label %17, label %21

17:                                               ; preds = %14
  %18 = load i64, ptr @H5E_BTREE_g, align 8, !tbaa !11
  %19 = load i64, ptr @H5E_CANTPROTECT_g, align 8, !tbaa !11
  %20 = tail call i32 (ptr, ptr, i32, i64, i64, ptr, ...) @H5E_printf_stack(ptr noundef nonnull @.str, ptr noundef nonnull @__func__.H5B2_delete, i32 noundef 1481, i64 noundef %18, i64 noundef %19, ptr noundef nonnull @.str.3) #7
  br label %.thread21

21:                                               ; preds = %14
  %22 = getelementptr inbounds nuw i8, ptr %15, i64 336
  store ptr %3, ptr %22, align 8, !tbaa !69
  %23 = getelementptr inbounds nuw i8, ptr %15, i64 344
  store ptr %4, ptr %23, align 8, !tbaa !70
  %24 = getelementptr inbounds nuw i8, ptr %15, i64 320
  %25 = load i64, ptr %24, align 8, !tbaa !71
  %.not = icmp eq i64 %25, 0
  br i1 %.not, label %28, label %26

26:                                               ; preds = %21
  %27 = getelementptr inbounds nuw i8, ptr %15, i64 328
  store i8 1, ptr %27, align 8, !tbaa !34
  br label %36

28:                                               ; preds = %21
  %29 = getelementptr inbounds nuw i8, ptr %15, i64 288
  store ptr %0, ptr %29, align 8, !tbaa !19
  %30 = tail call i32 @H5B2__hdr_delete(ptr noundef nonnull %15) #7
  %31 = icmp slt i32 %30, 0
  br i1 %31, label %32, label %.thread21

32:                                               ; preds = %28
  %33 = load i64, ptr @H5E_BTREE_g, align 8, !tbaa !11
  %34 = load i64, ptr @H5E_CANTDELETE_g, align 8, !tbaa !11
  %35 = tail call i32 (ptr, ptr, i32, i64, i64, ptr, ...) @H5E_printf_stack(ptr noundef nonnull @.str, ptr noundef nonnull @__func__.H5B2_delete, i32 noundef 1496, i64 noundef %33, i64 noundef %34, ptr noundef nonnull @.str.35) #7
  br label %36

36:                                               ; preds = %32, %26
  %.1 = phi i32 [ 0, %26 ], [ -1, %32 ]
  %37 = tail call i32 @H5B2__hdr_unprotect(ptr noundef nonnull %15, i32 noundef 0) #7
  %38 = icmp slt i32 %37, 0
  br i1 %38, label %39, label %.thread21

39:                                               ; preds = %36
  %40 = load i64, ptr @H5E_BTREE_g, align 8, !tbaa !11
  %41 = load i64, ptr @H5E_CANTUNPROTECT_g, align 8, !tbaa !11
  %42 = tail call i32 (ptr, ptr, i32, i64, i64, ptr, ...) @H5E_printf_stack(ptr noundef nonnull @.str, ptr noundef nonnull @__func__.H5B2_delete, i32 noundef 1503, i64 noundef %40, i64 noundef %41, ptr noundef nonnull @.str.6) #7
  br label %.thread21

.thread21:                                        ; preds = %28, %17, %36, %39, %11
  %.0 = phi i32 [ -1, %39 ], [ %.1, %36 ], [ 0, %11 ], [ 0, %28 ], [ -1, %17 ]
  ret i32 %.0
}